libQtBamf.so.1 libqtbamf1 #MINVER#
 _ZGVZN11BamfFactory11get_defaultEvE8instance@Base 0.1
 _ZN10BamfWindow11qt_metacallEN11QMetaObject4CallEiPPv@Base 0.1
 _ZN10BamfWindow11qt_metacastEPKc@Base 0.1
 _ZN10BamfWindow15OnActiveChangedEb@Base 0.1
 _ZN10BamfWindow16staticMetaObjectE@Base 0.1
 _ZN10BamfWindowC1E7QString@Base 0.1
 _ZN10BamfWindowC2E7QString@Base 0.1
 _ZN10BamfWindowD0Ev@Base 0.1
 _ZN10BamfWindowD1Ev@Base 0.1
 _ZN10BamfWindowD2Ev@Base 0.1
 _ZN11BamfControl11qt_metacallEN11QMetaObject4CallEiPPv@Base 0.1
 _ZN11BamfControl11qt_metacastEPKc@Base 0.1
 _ZN11BamfControl16staticMetaObjectE@Base 0.1
 _ZN11BamfControlC1Ev@Base 0.1
 _ZN11BamfControlC2Ev@Base 0.1
 _ZN11BamfControlD0Ev@Base 0.1
 _ZN11BamfControlD1Ev@Base 0.1
 _ZN11BamfControlD2Ev@Base 0.1
 _ZN11BamfFactory11qt_metacallEN11QMetaObject4CallEiPPv@Base 0.1
 _ZN11BamfFactory11qt_metacastEPKc@Base 0.1
 _ZN11BamfFactory12OnViewClosedEv@Base 0.1
 _ZN11BamfFactory13view_for_pathE7QString@Base 0.1
 _ZN11BamfFactory15OnViewDestroyedEP7QObject@Base 0.1
 _ZN11BamfFactory16staticMetaObjectE@Base 0.1
 _ZN11BamfFactoryC1Ev@Base 0.1
 _ZN11BamfFactoryC2Ev@Base 0.1
 _ZN11BamfFactoryD0Ev@Base 0.1
 _ZN11BamfFactoryD1Ev@Base 0.1
 _ZN11BamfFactoryD2Ev@Base 0.1
 _ZN11BamfMatcher10ViewClosedEP8BamfView@Base 0.1
 _ZN11BamfMatcher10ViewOpenedEP8BamfView@Base 0.1
 _ZN11BamfMatcher11qt_metacallEN11QMetaObject4CallEiPPv@Base 0.1
 _ZN11BamfMatcher11qt_metacastEPKc@Base 0.1
 _ZN11BamfMatcher12OnViewClosedERK7QStringS2_@Base 0.1
 _ZN11BamfMatcher12OnViewOpenedERK7QStringS2_@Base 0.1
 _ZN11BamfMatcher16staticMetaObjectE@Base 0.1
 _ZN11BamfMatcher19ActiveWindowChangedEP10BamfWindowS1_@Base 0.1
 _ZN11BamfMatcher21OnActiveWindowChangedERK7QStringS2_@Base 0.1
 _ZN11BamfMatcher24ActiveApplicationChangedEP15BamfApplicationS1_@Base 0.1
 _ZN11BamfMatcher26OnActiveApplicationChangedERK7QStringS2_@Base 0.1
 _ZN11BamfMatcherC1Ev@Base 0.1
 _ZN11BamfMatcherC2Ev@Base 0.1
 _ZN11BamfMatcherD0Ev@Base 0.1
 _ZN11BamfMatcherD1Ev@Base 0.1
 _ZN11BamfMatcherD2Ev@Base 0.1
 _ZN12BamfUintList11qt_metacallEN11QMetaObject4CallEiPPv@Base 0.1
 _ZN12BamfUintList11qt_metacastEPKc@Base 0.1
 _ZN12BamfUintList16staticMetaObjectE@Base 0.1
 _ZN12BamfUintListD0Ev@Base 0.1
 _ZN12BamfUintListD1Ev@Base 0.1
 _ZN12BamfUintListD2Ev@Base 0.1
 _ZN12BamfViewList11qt_metacallEN11QMetaObject4CallEiPPv@Base 0.1
 _ZN12BamfViewList11qt_metacastEPKc@Base 0.1
 _ZN12BamfViewList16staticMetaObjectE@Base 0.1
 _ZN12BamfViewListD0Ev@Base 0.1
 _ZN12BamfViewListD1Ev@Base 0.1
 _ZN12BamfViewListD2Ev@Base 0.1
 _ZN13BamfIndicator11qt_metacallEN11QMetaObject4CallEiPPv@Base 0.1
 _ZN13BamfIndicator11qt_metacastEPKc@Base 0.1
 _ZN13BamfIndicator16staticMetaObjectE@Base 0.1
 _ZN13BamfIndicatorC1E7QString@Base 0.1
 _ZN13BamfIndicatorC2E7QString@Base 0.1
 _ZN13BamfIndicatorD0Ev@Base 0.1
 _ZN13BamfIndicatorD1Ev@Base 0.1
 _ZN13BamfIndicatorD2Ev@Base 0.1
 _ZN14BamfWindowList11qt_metacallEN11QMetaObject4CallEiPPv@Base 0.1
 _ZN14BamfWindowList11qt_metacastEPKc@Base 0.1
 _ZN14BamfWindowList16staticMetaObjectE@Base 0.1
 _ZN14BamfWindowListD0Ev@Base 0.1
 _ZN14BamfWindowListD1Ev@Base 0.1
 _ZN14BamfWindowListD2Ev@Base 0.1
 _ZN15BamfApplication11WindowAddedEP10BamfWindow@Base 0.1
 _ZN15BamfApplication11qt_metacallEN11QMetaObject4CallEiPPv@Base 0.1
 _ZN15BamfApplication11qt_metacastEPKc@Base 0.1
 _ZN15BamfApplication13OnWindowAddedERK7QString@Base 0.1
 _ZN15BamfApplication13WindowRemovedEP10BamfWindow@Base 0.1
 _ZN15BamfApplication15OnWindowRemovedERK7QString@Base 0.1
 _ZN15BamfApplication16staticMetaObjectE@Base 0.1
 _ZN15BamfApplicationC1E7QString@Base 0.1
 _ZN15BamfApplicationC2E7QString@Base 0.1
 _ZN15BamfApplicationD0Ev@Base 0.1
 _ZN15BamfApplicationD1Ev@Base 0.1
 _ZN15BamfApplicationD2Ev@Base 0.1
 _ZN19BamfApplicationList11qt_metacallEN11QMetaObject4CallEiPPv@Base 0.1
 _ZN19BamfApplicationList11qt_metacastEPKc@Base 0.1
 _ZN19BamfApplicationList16staticMetaObjectE@Base 0.1
 _ZN19BamfApplicationListD0Ev@Base 0.1
 _ZN19BamfApplicationListD1Ev@Base 0.1
 _ZN19BamfApplicationListD2Ev@Base 0.1
 _ZN8BamfView10ChildAddedEPS_@Base 0.1
 _ZN8BamfView11qt_metacallEN11QMetaObject4CallEiPPv@Base 0.1
 _ZN8BamfView11qt_metacastEPKc@Base 0.1
 _ZN8BamfView12ChildRemovedEPS_@Base 0.1
 _ZN8BamfView12OnChildAddedERK7QString@Base 0.1
 _ZN8BamfView12OnViewClosedEv@Base 0.1
 _ZN8BamfView13ActiveChangedEb@Base 0.1
 _ZN8BamfView13UrgentChangedEb@Base 0.1
 _ZN8BamfView14OnChildRemovedERK7QString@Base 0.1
 _ZN8BamfView14RunningChangedEb@Base 0.1
 _ZN8BamfView16staticMetaObjectE@Base 0.1
 _ZN8BamfView18UserVisibleChangedEb@Base 0.1
 _ZN8BamfView6ClosedEv@Base 0.1
 _ZN8BamfViewC1E7QString@Base 0.1
 _ZN8BamfViewC2E7QString@Base 0.1
 _ZN8BamfViewD0Ev@Base 0.1
 _ZN8BamfViewD1Ev@Base 0.1
 _ZN8BamfViewD2Ev@Base 0.1
 _ZNK10BamfWindow10metaObjectEv@Base 0.1
 _ZNK10BamfWindow11last_activeEv@Base 0.1
 _ZNK10BamfWindow3xidEv@Base 0.1
 _ZNK10BamfWindow9transientEv@Base 0.1
 _ZNK11BamfControl10metaObjectEv@Base 0.1
 _ZNK11BamfControl19insert_desktop_fileERK7QString@Base 0.1
 _ZNK11BamfControl28register_application_for_pidERK7QStringi@Base 0.1
 _ZNK11BamfFactory10metaObjectEv@Base 0.1
 _ZNK11BamfMatcher10metaObjectEv@Base 0.1
 _ZNK11BamfMatcher12applicationsEv@Base 0.1
 _ZNK11BamfMatcher13active_windowEv@Base 0.1
 _ZNK11BamfMatcher18active_applicationEv@Base 0.1
 _ZNK11BamfMatcher18register_favoritesERK11QStringList@Base 0.2.1
 _ZNK11BamfMatcher19application_for_xidEj@Base 0.1
 _ZNK11BamfMatcher20running_applicationsEv@Base 0.1
 _ZNK11BamfMatcher22application_is_runningERK7QString@Base 0.1
 _ZNK12BamfUintList10metaObjectEv@Base 0.1
 _ZNK12BamfViewList10metaObjectEv@Base 0.1
 _ZNK13BamfIndicator10metaObjectEv@Base 0.1
 _ZNK13BamfIndicator14dbus_menu_pathEv@Base 0.1
 _ZNK13BamfIndicator4pathEv@Base 0.1
 _ZNK13BamfIndicator7addressEv@Base 0.1
 _ZNK14BamfWindowList10metaObjectEv@Base 0.1
 _ZNK15BamfApplication10metaObjectEv@Base 0.1
 _ZNK15BamfApplication12desktop_fileEv@Base 0.1
 _ZNK15BamfApplication16application_typeEv@Base 0.1
 _ZNK15BamfApplication4xidsEv@Base 0.1
 _ZNK15BamfApplication7windowsEv@Base 0.1
 _ZNK19BamfApplicationList10metaObjectEv@Base 0.1
 _ZNK8BamfView10metaObjectEv@Base 0.1
 _ZNK8BamfView12user_visibleEv@Base 0.1
 _ZNK8BamfView4iconEv@Base 0.1
 _ZNK8BamfView4nameEv@Base 0.1
 _ZNK8BamfView4pathEv@Base 0.1
 _ZNK8BamfView6activeEv@Base 0.1
 _ZNK8BamfView6urgentEv@Base 0.1
 _ZNK8BamfView7runningEv@Base 0.1
 _ZNK8BamfView8childrenEv@Base 0.1
 _ZNK8BamfView9view_typeEv@Base 0.1
 _ZTI10BamfWindow@Base 0.1
 _ZTI11BamfControl@Base 0.1
 _ZTI11BamfFactory@Base 0.1
 _ZTI11BamfMatcher@Base 0.1
 _ZTI12BamfUintList@Base 0.1
 _ZTI12BamfViewList@Base 0.1
 _ZTI13BamfIndicator@Base 0.1
 _ZTI14BamfWindowList@Base 0.1
 _ZTI15BamfApplication@Base 0.1
 _ZTI19BamfApplicationList@Base 0.1
 _ZTI8BamfView@Base 0.1
 _ZTS10BamfWindow@Base 0.1
 _ZTS11BamfControl@Base 0.1
 _ZTS11BamfFactory@Base 0.1
 _ZTS11BamfMatcher@Base 0.1
 _ZTS12BamfUintList@Base 0.1
 _ZTS12BamfViewList@Base 0.1
 _ZTS13BamfIndicator@Base 0.1
 _ZTS14BamfWindowList@Base 0.1
 _ZTS15BamfApplication@Base 0.1
 _ZTS19BamfApplicationList@Base 0.1
 _ZTS8BamfView@Base 0.1
 _ZTV10BamfWindow@Base 0.1
 _ZTV11BamfControl@Base 0.1
 _ZTV11BamfFactory@Base 0.1
 _ZTV11BamfMatcher@Base 0.1
 _ZTV12BamfUintList@Base 0.1
 _ZTV12BamfViewList@Base 0.1
 _ZTV13BamfIndicator@Base 0.1
 _ZTV14BamfWindowList@Base 0.1
 _ZTV15BamfApplication@Base 0.1
 _ZTV19BamfApplicationList@Base 0.1
 _ZTV8BamfView@Base 0.1
 _ZZN11BamfFactory11get_defaultEvE8instance@Base 0.1
