libQtGConf.so.1 libqtgconf1 #MINVER#
 _ZN10QByteArrayD1Ev@Base 0.1
 _ZN10QByteArrayD2Ev@Base 0.1-0ubuntu5
 _ZN16GConfItemPrivate17notify_trampolineEP12_GConfClientjP11_GConfEntryPv@Base 0.1
 _ZN19GConfItemQmlWrapper11qt_metacallEN11QMetaObject4CallEiPPv@Base 0.1
 _ZN19GConfItemQmlWrapper11qt_metacastEPKc@Base 0.1
 _ZN19GConfItemQmlWrapper16staticMetaObjectE@Base 0.1
 _ZN19GConfItemQmlWrapper6setKeyERK7QString@Base 0.1
 _ZN19GConfItemQmlWrapper8setValueERK8QVariant@Base 0.1
 _ZN19GConfItemQmlWrapperC1EP7QObject@Base 0.1
 _ZN19GConfItemQmlWrapperC2EP7QObject@Base 0.1
 _ZN19GConfItemQmlWrapperD0Ev@Base 0.1
 _ZN19GConfItemQmlWrapperD1Ev@Base 0.1
 _ZN19GConfItemQmlWrapperD2Ev@Base 0.1
 _ZN5QListI7QStringE13detach_helperEi@Base 0.1-0ubuntu5
 _ZN5QListI7QStringE13detach_helperEv@Base 0.1-0ubuntu5
 _ZN5QListI7QStringE18detach_helper_growEii@Base 0.1-0ubuntu5
 _ZN5QListI7QStringE6appendERKS0_@Base 0.1
 _ZN5QListI7QStringED1Ev@Base 0.1
 _ZN5QListI7QStringED2Ev@Base 0.1-0ubuntu5
 _ZN5QListI8QVariantE13detach_helperEi@Base 0.1-0ubuntu5
 _ZN5QListI8QVariantE13detach_helperEv@Base 0.1-0ubuntu5
 _ZN5QListI8QVariantE18detach_helper_growEii@Base 0.1-0ubuntu5
 _ZN5QListI8QVariantE6appendERKS0_@Base 0.1
 _ZN5QListI8QVariantED1Ev@Base 0.1
 _ZN5QListI8QVariantED2Ev@Base 0.1-0ubuntu5
 _ZN6QDebugD1Ev@Base 0.1
 _ZN6QDebugD2Ev@Base 0.1-0ubuntu5
 _ZN7QStringD1Ev@Base 0.1
 _ZN7QStringD2Ev@Base 0.1-0ubuntu5
 _ZN9GConfItem11qt_metacallEN11QMetaObject4CallEiPPv@Base 0.1
 _ZN9GConfItem11qt_metacastEPKc@Base 0.1
 _ZN9GConfItem12update_valueEbRK7QStringRK8QVariant@Base 0.1
 _ZN9GConfItem12valueChangedEv@Base 0.1
 _ZN9GConfItem14subtreeChangedERK7QStringRK8QVariant@Base 0.1
 _ZN9GConfItem16staticMetaObjectE@Base 0.1
 _ZN9GConfItem3setERK8QVariant@Base 0.1
 _ZN9GConfItem5unsetEv@Base 0.1
 _ZN9GConfItemC1ERK7QStringP7QObject@Base 0.1
 _ZN9GConfItemC2ERK7QStringP7QObject@Base 0.1
 _ZN9GConfItemD0Ev@Base 0.1
 _ZN9GConfItemD1Ev@Base 0.1
 _ZN9GConfItemD2Ev@Base 0.1
 _ZNK19GConfItemQmlWrapper10getEntriesEv@Base 0.1
 _ZNK19GConfItemQmlWrapper10metaObjectEv@Base 0.1
 _ZNK19GConfItemQmlWrapper12valueChangedEv@Base 0.1
 _ZNK19GConfItemQmlWrapper14subtreeChangedEv@Base 0.1
 _ZNK19GConfItemQmlWrapper6getKeyEv@Base 0.1
 _ZNK19GConfItemQmlWrapper7getDirsEv@Base 0.1
 _ZNK19GConfItemQmlWrapper8getValueEv@Base 0.1
 _ZNK9GConfItem10metaObjectEv@Base 0.1
 _ZNK9GConfItem11listEntriesEv@Base 0.1
 _ZNK9GConfItem3keyEv@Base 0.1
 _ZNK9GConfItem5valueERK8QVariant@Base 0.1
 _ZNK9GConfItem5valueEv@Base 0.1
 _ZNK9GConfItem8listDirsEv@Base 0.1
 _ZTI19GConfItemQmlWrapper@Base 0.1
 _ZTI9GConfItem@Base 0.1
 _ZTS19GConfItemQmlWrapper@Base 0.1
 _ZTS9GConfItem@Base 0.1
 _ZTV19GConfItemQmlWrapper@Base 0.1
 _ZTV9GConfItem@Base 0.1
