libQtDee.so.2 libqtdee2 #MINVER#
 _ZN12DeeListModel11nameChangedERK7QString@Base 0.1
 _ZN12DeeListModel11qt_metacallEN11QMetaObject4CallEiPPv@Base 0.1
 _ZN12DeeListModel11qt_metacastEPKc@Base 0.1
 _ZN12DeeListModel12countChangedEv@Base 0.2.3
 _ZN12DeeListModel16roleNamesChangedERK5QHashIi10QByteArrayE@Base 0.2.3
 _ZN12DeeListModel16staticMetaObjectE@Base 0.1
 _ZN12DeeListModel19synchronizedChangedEb@Base 0.1
 _ZN12DeeListModel3getEi@Base 0.2.2
 _ZN12DeeListModel5countEv@Base 0.2.2
 _ZN12DeeListModel7setNameERK7QString@Base 0.1
 _ZN12DeeListModelC1EP7QObject@Base 0.1
 _ZN12DeeListModelC2EP7QObject@Base 0.1
 _ZN12DeeListModelD0Ev@Base 0.1
 _ZN12DeeListModelD1Ev@Base 0.1
 _ZN12DeeListModelD2Ev@Base 0.1
 _ZNK12DeeListModel10metaObjectEv@Base 0.1
 _ZNK12DeeListModel12synchronizedEv@Base 0.1
 _ZNK12DeeListModel4dataERK11QModelIndexi@Base 0.1
 _ZNK12DeeListModel4nameEv@Base 0.1
 _ZNK12DeeListModel8rowCountERK11QModelIndex@Base 0.1
 _ZTI12DeeListModel@Base 0.1
 _ZTS12DeeListModel@Base 0.1
 _ZTV12DeeListModel@Base 0.1
